; ModuleID = '56/1895.c'
source_filename = "56/1895.c"
target datalayout = "e-m:e-p270:32:32-p271:32:32-p272:64:64-i64:64-f80:128-n8:16:32:64-S128"
target triple = "x86_64-pc-linux-gnu"

@.str = private unnamed_addr constant [3 x i8] c"%d\00", align 1

; Function Attrs: noinline nounwind uwtable
define dso_local void @main() #0 {
  %1 = alloca i32, align 4
  %2 = alloca i32, align 4
  %3 = alloca i32, align 4
  %4 = alloca i32, align 4
  %5 = alloca i32, align 4
  %6 = alloca i32, align 4
  %7 = alloca i32, align 4
  %8 = alloca i32, align 4
  %9 = alloca i32, align 4
  %10 = alloca i32, align 4
  %11 = alloca i32, align 4
  %12 = call i32 (i8*, ...) @__isoc99_scanf(i8* getelementptr inbounds ([3 x i8], [3 x i8]* @.str, i64 0, i64 0), i32* %1)
  %13 = load i32, i32* %1, align 4
  %14 = sdiv i32 %13, 10000
  store i32 %14, i32* %2, align 4
  %15 = load i32, i32* %1, align 4
  %16 = srem i32 %15, 10000
  store i32 %16, i32* %7, align 4
  %17 = load i32, i32* %7, align 4
  %18 = sdiv i32 %17, 1000
  store i32 %18, i32* %3, align 4
  %19 = load i32, i32* %7, align 4
  %20 = srem i32 %19, 1000
  store i32 %20, i32* %8, align 4
  %21 = load i32, i32* %8, align 4
  %22 = sdiv i32 %21, 100
  store i32 %22, i32* %4, align 4
  %23 = load i32, i32* %8, align 4
  %24 = srem i32 %23, 100
  store i32 %24, i32* %9, align 4
  %25 = load i32, i32* %9, align 4
  %26 = sdiv i32 %25, 10
  store i32 %26, i32* %5, align 4
  %27 = load i32, i32* %9, align 4
  %28 = srem i32 %27, 10
  store i32 %28, i32* %10, align 4
  %29 = load i32, i32* %10, align 4
  store i32 %29, i32* %6, align 4
  %30 = load i32, i32* %6, align 4
  %31 = icmp ne i32 %30, 0
  br i1 %31, label %32, label %35

32:                                               ; preds = %0
  %33 = load i32, i32* %6, align 4
  %34 = call i32 (i8*, ...) @printf(i8* getelementptr inbounds ([3 x i8], [3 x i8]* @.str, i64 0, i64 0), i32 %33)
  br label %35

35:                                               ; preds = %32, %0
  %36 = load i32, i32* %5, align 4
  %37 = icmp ne i32 %36, 0
  br i1 %37, label %38, label %41

38:                                               ; preds = %35
  %39 = load i32, i32* %5, align 4
  %40 = call i32 (i8*, ...) @printf(i8* getelementptr inbounds ([3 x i8], [3 x i8]* @.str, i64 0, i64 0), i32 %39)
  br label %41

41:                                               ; preds = %38, %35
  %42 = load i32, i32* %4, align 4
  %43 = icmp ne i32 %42, 0
  br i1 %43, label %44, label %47

44:                                               ; preds = %41
  %45 = load i32, i32* %4, align 4
  %46 = call i32 (i8*, ...) @printf(i8* getelementptr inbounds ([3 x i8], [3 x i8]* @.str, i64 0, i64 0), i32 %45)
  br label %47

47:                                               ; preds = %44, %41
  %48 = load i32, i32* %3, align 4
  %49 = icmp ne i32 %48, 0
  br i1 %49, label %50, label %53

50:                                               ; preds = %47
  %51 = load i32, i32* %3, align 4
  %52 = call i32 (i8*, ...) @printf(i8* getelementptr inbounds ([3 x i8], [3 x i8]* @.str, i64 0, i64 0), i32 %51)
  br label %53

53:                                               ; preds = %50, %47
  %54 = load i32, i32* %2, align 4
  %55 = icmp ne i32 %54, 0
  br i1 %55, label %56, label %59

56:                                               ; preds = %53
  %57 = load i32, i32* %2, align 4
  %58 = call i32 (i8*, ...) @printf(i8* getelementptr inbounds ([3 x i8], [3 x i8]* @.str, i64 0, i64 0), i32 %57)
  br label %59

59:                                               ; preds = %56, %53
  ret void
}

declare dso_local i32 @__isoc99_scanf(i8*, ...) #1

declare dso_local i32 @printf(i8*, ...) #1


!llvm.module.flags = !{!0}
!llvm.ident = !{!1}

!0 = !{i32 1, !"wchar_size", i32 4}
!1 = !{!"clang version 10.0.0-4ubuntu1 "}
